target datalayout = "e-m:e-p270:32:32-p271:32:32-p272:64:64-i64:64-i128:128-f80:128-n8:16:32:64-S128"
target triple = "x86_64-pc-linux-gnu"

; Function Attrs: nounwind uwtable
define internal i64 @adler32_combine_(i64 noundef %0, i64 noundef %1, i64 noundef %2) #0 {
  %4 = alloca i64, align 8
  %5 = alloca i64, align 8
  %6 = alloca i64, align 8
  %7 = alloca i64, align 8
  %8 = alloca i64, align 8
  %9 = alloca i64, align 8
  %10 = alloca i32, align 4
  %11 = alloca i32, align 4
  store i64 %0, ptr %5, align 8, !tbaa !3
  store i64 %1, ptr %6, align 8, !tbaa !3
  store i64 %2, ptr %7, align 8, !tbaa !3
  call void @llvm.lifetime.start.p0(i64 8, ptr %8) #2
  call void @llvm.lifetime.start.p0(i64 8, ptr %9) #2
  call void @llvm.lifetime.start.p0(i64 4, ptr %10) #2
  %12 = load i64, ptr %7, align 8, !tbaa !3
  %13 = icmp slt i64 %12, 0
  br i1 %13, label %14, label %15

14:                                               ; preds = %3
  store i64 4294967295, ptr %4, align 8
  store i32 1, ptr %11, align 4
  br label %75

15:                                               ; preds = %3
  %16 = load i64, ptr %7, align 8, !tbaa !3
  %17 = srem i64 %16, 65521
  store i64 %17, ptr %7, align 8, !tbaa !3
  %18 = load i64, ptr %7, align 8, !tbaa !3
  %19 = trunc i64 %18 to i32
  store i32 %19, ptr %10, align 4, !tbaa !10
  %20 = load i64, ptr %5, align 8, !tbaa !3
  %21 = and i64 %20, 65535
  store i64 %21, ptr %8, align 8, !tbaa !3
  %22 = load i32, ptr %10, align 4, !tbaa !10
  %23 = zext i32 %22 to i64
  %24 = load i64, ptr %8, align 8, !tbaa !3
  %25 = mul i64 %23, %24
  store i64 %25, ptr %9, align 8, !tbaa !3
  %26 = load i64, ptr %9, align 8, !tbaa !3
  %27 = urem i64 %26, 65521
  store i64 %27, ptr %9, align 8, !tbaa !3
  %28 = load i64, ptr %6, align 8, !tbaa !3
  %29 = and i64 %28, 65535
  %30 = add i64 %29, 65521
  %31 = sub i64 %30, 1
  %32 = load i64, ptr %8, align 8, !tbaa !3
  %33 = add i64 %32, %31
  store i64 %33, ptr %8, align 8, !tbaa !3
  %34 = load i64, ptr %5, align 8, !tbaa !3
  %35 = lshr i64 %34, 16
  %36 = and i64 %35, 65535
  %37 = load i64, ptr %6, align 8, !tbaa !3
  %38 = lshr i64 %37, 16
  %39 = and i64 %38, 65535
  %40 = add i64 %36, %39
  %41 = add i64 %40, 65521
  %42 = load i32, ptr %10, align 4, !tbaa !10
  %43 = zext i32 %42 to i64
  %44 = sub i64 %41, %43
  %45 = load i64, ptr %9, align 8, !tbaa !3
  %46 = add i64 %45, %44
  store i64 %46, ptr %9, align 8, !tbaa !3
  %47 = load i64, ptr %8, align 8, !tbaa !3
  %48 = icmp uge i64 %47, 65521
  br i1 %48, label %49, label %52

49:                                               ; preds = %15
  %50 = load i64, ptr %8, align 8, !tbaa !3
  %51 = sub i64 %50, 65521
  store i64 %51, ptr %8, align 8, !tbaa !3
  br label %52

52:                                               ; preds = %49, %15
  %53 = load i64, ptr %8, align 8, !tbaa !3
  %54 = icmp uge i64 %53, 65521
  br i1 %54, label %55, label %58

55:                                               ; preds = %52
  %56 = load i64, ptr %8, align 8, !tbaa !3
  %57 = sub i64 %56, 65521
  store i64 %57, ptr %8, align 8, !tbaa !3
  br label %58

58:                                               ; preds = %55, %52
  %59 = load i64, ptr %9, align 8, !tbaa !3
  %60 = icmp uge i64 %59, 131042
  br i1 %60, label %61, label %64

61:                                               ; preds = %58
  %62 = load i64, ptr %9, align 8, !tbaa !3
  %63 = sub i64 %62, 131042
  store i64 %63, ptr %9, align 8, !tbaa !3
  br label %64

64:                                               ; preds = %61, %58
  %65 = load i64, ptr %9, align 8, !tbaa !3
  %66 = icmp uge i64 %65, 65521
  br i1 %66, label %67, label %70

67:                                               ; preds = %64
  %68 = load i64, ptr %9, align 8, !tbaa !3
  %69 = sub i64 %68, 65521
  store i64 %69, ptr %9, align 8, !tbaa !3
  br label %70

70:                                               ; preds = %67, %64
  %71 = load i64, ptr %8, align 8, !tbaa !3
  %72 = load i64, ptr %9, align 8, !tbaa !3
  %73 = shl i64 %72, 16
  %74 = or i64 %71, %73
  store i64 %74, ptr %4, align 8
  store i32 1, ptr %11, align 4
  br label %75

75:                                               ; preds = %70, %14
  call void @llvm.lifetime.end.p0(i64 4, ptr %10) #2
  call void @llvm.lifetime.end.p0(i64 8, ptr %9) #2
  call void @llvm.lifetime.end.p0(i64 8, ptr %8) #2
  %76 = load i64, ptr %4, align 8
  ret i64 %76
}

; Function Attrs: nounwind uwtable
define i64 @MOZ_Z_adler32_combine64(i64 noundef %0, i64 noundef %1, i64 noundef %2) #0 {
  %4 = alloca i64, align 8
  %5 = alloca i64, align 8
  %6 = alloca i64, align 8
  store i64 %0, ptr %4, align 8, !tbaa !3
  store i64 %1, ptr %5, align 8, !tbaa !3
  store i64 %2, ptr %6, align 8, !tbaa !3
  %7 = load i64, ptr %4, align 8, !tbaa !3
  %8 = load i64, ptr %5, align 8, !tbaa !3
  %9 = load i64, ptr %6, align 8, !tbaa !3
  %10 = call i64 @adler32_combine_(i64 noundef %7, i64 noundef %8, i64 noundef %9)
  ret i64 %10
}